target datalayout = "e-m:e-p270:32:32-p271:32:32-p272:64:64-i64:64-i128:128-f80:128-n8:16:32:64-S128"
target triple = "x86_64-pc-linux-gnu"

%struct.dsa_area = type { ptr, ptr, [1024 x %struct.dsa_segment_map], i64, i64 }
%struct.dsa_segment_map = type { ptr, ptr, ptr, ptr, ptr }

; Function Attrs: nounwind uwtable
define dso_local void @dsa_detach(ptr noundef %0) #0 {
  %2 = alloca ptr, align 8
  %3 = alloca i32, align 4
  store ptr %0, ptr %2, align 8
  call void @llvm.lifetime.start.p0(i64 4, ptr %3) #8
  store i32 0, ptr %3, align 4
  br label %4

4:                                                ; preds = %29, %1
  %5 = load i32, ptr %3, align 4
  %6 = sext i32 %5 to i64
  %7 = load ptr, ptr %2, align 8
  %8 = getelementptr inbounds nuw %struct.dsa_area, ptr %7, i32 0, i32 3
  %9 = load i64, ptr %8, align 8
  %10 = icmp ule i64 %6, %9
  br i1 %10, label %11, label %32

11:                                               ; preds = %4
  %12 = load ptr, ptr %2, align 8
  %13 = getelementptr inbounds nuw %struct.dsa_area, ptr %12, i32 0, i32 2
  %14 = load i32, ptr %3, align 4
  %15 = sext i32 %14 to i64
  %16 = getelementptr inbounds [1024 x %struct.dsa_segment_map], ptr %13, i64 0, i64 %15
  %17 = getelementptr inbounds nuw %struct.dsa_segment_map, ptr %16, i32 0, i32 0
  %18 = load ptr, ptr %17, align 8
  %19 = icmp ne ptr %18, null
  br i1 %19, label %20, label %28

20:                                               ; preds = %11
  %21 = load ptr, ptr %2, align 8
  %22 = getelementptr inbounds nuw %struct.dsa_area, ptr %21, i32 0, i32 2
  %23 = load i32, ptr %3, align 4
  %24 = sext i32 %23 to i64
  %25 = getelementptr inbounds [1024 x %struct.dsa_segment_map], ptr %22, i64 0, i64 %24
  %26 = getelementptr inbounds nuw %struct.dsa_segment_map, ptr %25, i32 0, i32 0
  %27 = load ptr, ptr %26, align 8
  call void @dsm_detach(ptr noundef %27)
  br label %28

28:                                               ; preds = %20, %11
  br label %29

29:                                               ; preds = %28
  %30 = load i32, ptr %3, align 4
  %31 = add i32 %30, 1
  store i32 %31, ptr %3, align 4
  br label %4, !llvm.loop !26

32:                                               ; preds = %4
  %33 = load ptr, ptr %2, align 8
  call void @pfree(ptr noundef %33)
  call void @llvm.lifetime.end.p0(i64 4, ptr %3) #8
  ret void
}