; Function Attrs: nounwind uwtable
define dso_local void @dsa_detach(ptr noundef %0) local_unnamed_addr #0 {
  %2 = getelementptr inbounds nuw i8, ptr %0, i64 40976
  %3 = getelementptr inbounds nuw i8, ptr %0, i64 16
  br label %4

4:                                                ; preds = %1, %9
  %5 = phi i64 [ 0, %1 ], [ %11, %9 ]
  %.010 = phi i32 [ 0, %1 ], [ %10, %9 ]
  %6 = getelementptr inbounds [1024 x %struct.dsa_segment_map], ptr %3, i64 0, i64 %5
  %7 = load ptr, ptr %6, align 8
  %.not9 = icmp eq ptr %7, null
  br i1 %.not9, label %9, label %8

8:                                                ; preds = %4
  tail call void @dsm_detach(ptr noundef nonnull %7) #11
  br label %9

9:                                                ; preds = %4, %8
  %10 = add i32 %.010, 1
  %11 = sext i32 %10 to i64
  %12 = load i64, ptr %2, align 8
  %.not = icmp ult i64 %12, %11
  br i1 %.not, label %13, label %4, !llvm.loop !29

13:                                               ; preds = %9
  tail call void @pfree(ptr noundef nonnull %0) #11
  ret void
}